; Function Attrs: mustprogress uwtable
define void @_ZN6google8protobuf2io19LimitingInputStream6BackUpEi(ptr nocapture noundef nonnull align 8 dereferenceable(32) %0, i32 noundef %1) unnamed_addr #5 align 2 {
  %3 = getelementptr inbounds i8, ptr %0, i64 16
  %4 = load i64, ptr %3, align 8
  %5 = icmp slt i64 %4, 0
  %6 = getelementptr inbounds i8, ptr %0, i64 8
  %7 = load ptr, ptr %6, align 8
  br i1 %5, label %8, label %15

8:                                                ; preds = %2
  %9 = sext i32 %1 to i64
  %10 = trunc i64 %4 to i32
  %11 = sub i32 %1, %10
  %12 = load ptr, ptr %7, align 8
  %13 = getelementptr inbounds i8, ptr %12, i64 24
  %14 = load ptr, ptr %13, align 8
  tail call void %14(ptr noundef nonnull align 8 dereferenceable(8) %7, i32 noundef %11)
  br label %22

15:                                               ; preds = %2
  %16 = load ptr, ptr %7, align 8
  %17 = getelementptr inbounds i8, ptr %16, i64 24
  %18 = load ptr, ptr %17, align 8
  tail call void %18(ptr noundef nonnull align 8 dereferenceable(8) %7, i32 noundef %1)
  %19 = sext i32 %1 to i64
  %20 = load i64, ptr %3, align 8
  %21 = add nsw i64 %20, %19
  br label %22

22:                                               ; preds = %15, %8
  %storemerge = phi i64 [ %21, %15 ], [ %9, %8 ]
  store i64 %storemerge, ptr %3, align 8
  ret void
}